#include <math.h>
#include <stdio.h>
#include <stdlib.h>
#include <string.h>

int main(){
    int m,n,a[100][100],i,j,s=0;
    scanf("%d%d",&m,&n);
    for(i=0;i<m;i++){
            for(j=0;j<n;j++){
                    scanf("%d",&a[i][j]);
                    }
            }
    for(int k=0;k<(m+1)/2&&k<(n+1)/2;k++){
            for(j=k;j<n-k;j++){
                               s++;
                               if(s==m*n)
                                 printf("%d",a[k][j]); 
                               else if(s<m*n)
                                 printf("%d\n",a[k][j]);
                               }
            for(i=k+1;i<m-k;i++){
                                 s++;
                                 if(s==m*n)
                                   printf("%d",a[i][n-k-1]);
                                 else if(s<m*n)
                                   printf("%d\n",a[i][n-k-1]);
                                 }
            for(j=n-k-2;j>k-1;j--){
                                 s++;
                                 if(s==m*n)
                                   printf("%d",a[m-k-1][j]);
                                 else if(s<m*n)
                                   printf("%d\n",a[m-k-1][j]);
                                 }
            for(i=m-k-2;i>k;i--){
                                 s++;
                                 if(s==m*n)
                                   printf("%d",a[i][k]);
                                 else if(s<m*n)
                                   printf("%d\n",a[i][k]);
                                 }
            } 
    return 0;
}