target datalayout = "e-m:e-p270:32:32-p271:32:32-p272:64:64-i64:64-f80:128-n8:16:32:64-S128"
target triple = "x86_64-pc-linux-gnu"

@.str = private unnamed_addr constant [5 x i8] c"%d%d\00", align 1
@.str.1 = private unnamed_addr constant [3 x i8] c"%d\00", align 1
@.str.2 = private unnamed_addr constant [4 x i8] c"%d\0A\00", align 1

; Function Attrs: noinline nounwind uwtable
define dso_local i32 @main() #0 {
  %1 = alloca i32, align 4
  %2 = alloca i32, align 4
  %3 = alloca i32, align 4
  %4 = alloca [100 x [100 x i32]], align 16
  %5 = alloca i32, align 4
  %6 = alloca i32, align 4
  %7 = alloca i32, align 4
  %8 = alloca i32, align 4
  store i32 0, i32* %1, align 4
  store i32 0, i32* %7, align 4
  %9 = call i32 (i8*, ...) @__isoc99_scanf(i8* getelementptr inbounds ([5 x i8], [5 x i8]* @.str, i64 0, i64 0), i32* %2, i32* %3)
  store i32 0, i32* %5, align 4
  br label %10

10:                                               ; preds = %31, %0
  %11 = load i32, i32* %5, align 4
  %12 = load i32, i32* %2, align 4
  %13 = icmp slt i32 %11, %12
  br i1 %13, label %14, label %34

14:                                               ; preds = %10
  store i32 0, i32* %6, align 4
  br label %15

15:                                               ; preds = %27, %14
  %16 = load i32, i32* %6, align 4
  %17 = load i32, i32* %3, align 4
  %18 = icmp slt i32 %16, %17
  br i1 %18, label %19, label %30

19:                                               ; preds = %15
  %20 = load i32, i32* %5, align 4
  %21 = sext i32 %20 to i64
  %22 = getelementptr inbounds [100 x [100 x i32]], [100 x [100 x i32]]* %4, i64 0, i64 %21
  %23 = load i32, i32* %6, align 4
  %24 = sext i32 %23 to i64
  %25 = getelementptr inbounds [100 x i32], [100 x i32]* %22, i64 0, i64 %24
  %26 = call i32 (i8*, ...) @__isoc99_scanf(i8* getelementptr inbounds ([3 x i8], [3 x i8]* @.str.1, i64 0, i64 0), i32* %25)
  br label %27

27:                                               ; preds = %19
  %28 = load i32, i32* %6, align 4
  %29 = add nsw i32 %28, 1
  store i32 %29, i32* %6, align 4
  br label %15

30:                                               ; preds = %15
  br label %31

31:                                               ; preds = %30
  %32 = load i32, i32* %5, align 4
  %33 = add nsw i32 %32, 1
  store i32 %33, i32* %5, align 4
  br label %10

34:                                               ; preds = %10
  store i32 0, i32* %8, align 4
  br label %35

35:                                               ; preds = %246, %34
  %36 = load i32, i32* %8, align 4
  %37 = load i32, i32* %2, align 4
  %38 = add nsw i32 %37, 1
  %39 = sdiv i32 %38, 2
  %40 = icmp slt i32 %36, %39
  br i1 %40, label %41, label %47

41:                                               ; preds = %35
  %42 = load i32, i32* %8, align 4
  %43 = load i32, i32* %3, align 4
  %44 = add nsw i32 %43, 1
  %45 = sdiv i32 %44, 2
  %46 = icmp slt i32 %42, %45
  br label %47

47:                                               ; preds = %41, %35
  %48 = phi i1 [ false, %35 ], [ %46, %41 ]
  br i1 %48, label %49, label %249

49:                                               ; preds = %47
  %50 = load i32, i32* %8, align 4
  store i32 %50, i32* %6, align 4
  br label %51

51:                                               ; preds = %91, %49
  %52 = load i32, i32* %6, align 4
  %53 = load i32, i32* %3, align 4
  %54 = load i32, i32* %8, align 4
  %55 = sub nsw i32 %53, %54
  %56 = icmp slt i32 %52, %55
  br i1 %56, label %57, label %94

57:                                               ; preds = %51
  %58 = load i32, i32* %7, align 4
  %59 = add nsw i32 %58, 1
  store i32 %59, i32* %7, align 4
  %60 = load i32, i32* %7, align 4
  %61 = load i32, i32* %2, align 4
  %62 = load i32, i32* %3, align 4
  %63 = mul nsw i32 %61, %62
  %64 = icmp eq i32 %60, %63
  br i1 %64, label %65, label %74

65:                                               ; preds = %57
  %66 = load i32, i32* %8, align 4
  %67 = sext i32 %66 to i64
  %68 = getelementptr inbounds [100 x [100 x i32]], [100 x [100 x i32]]* %4, i64 0, i64 %67
  %69 = load i32, i32* %6, align 4
  %70 = sext i32 %69 to i64
  %71 = getelementptr inbounds [100 x i32], [100 x i32]* %68, i64 0, i64 %70
  %72 = load i32, i32* %71, align 4
  %73 = call i32 (i8*, ...) @printf(i8* getelementptr inbounds ([3 x i8], [3 x i8]* @.str.1, i64 0, i64 0), i32 %72)
  br label %90

74:                                               ; preds = %57
  %75 = load i32, i32* %7, align 4
  %76 = load i32, i32* %2, align 4
  %77 = load i32, i32* %3, align 4
  %78 = mul nsw i32 %76, %77
  %79 = icmp slt i32 %75, %78
  br i1 %79, label %80, label %89

80:                                               ; preds = %74
  %81 = load i32, i32* %8, align 4
  %82 = sext i32 %81 to i64
  %83 = getelementptr inbounds [100 x [100 x i32]], [100 x [100 x i32]]* %4, i64 0, i64 %82
  %84 = load i32, i32* %6, align 4
  %85 = sext i32 %84 to i64
  %86 = getelementptr inbounds [100 x i32], [100 x i32]* %83, i64 0, i64 %85
  %87 = load i32, i32* %86, align 4
  %88 = call i32 (i8*, ...) @printf(i8* getelementptr inbounds ([4 x i8], [4 x i8]* @.str.2, i64 0, i64 0), i32 %87)
  br label %89

89:                                               ; preds = %80, %74
  br label %90

90:                                               ; preds = %89, %65
  br label %91

91:                                               ; preds = %90
  %92 = load i32, i32* %6, align 4
  %93 = add nsw i32 %92, 1
  store i32 %93, i32* %6, align 4
  br label %51

94:                                               ; preds = %51
  %95 = load i32, i32* %8, align 4
  %96 = add nsw i32 %95, 1
  store i32 %96, i32* %5, align 4
  br label %97

97:                                               ; preds = %143, %94
  %98 = load i32, i32* %5, align 4
  %99 = load i32, i32* %2, align 4
  %100 = load i32, i32* %8, align 4
  %101 = sub nsw i32 %99, %100
  %102 = icmp slt i32 %98, %101
  br i1 %102, label %103, label %146

103:                                              ; preds = %97
  %104 = load i32, i32* %7, align 4
  %105 = add nsw i32 %104, 1
  store i32 %105, i32* %7, align 4
  %106 = load i32, i32* %7, align 4
  %107 = load i32, i32* %2, align 4
  %108 = load i32, i32* %3, align 4
  %109 = mul nsw i32 %107, %108
  %110 = icmp eq i32 %106, %109
  br i1 %110, label %111, label %123

111:                                              ; preds = %103
  %112 = load i32, i32* %5, align 4
  %113 = sext i32 %112 to i64
  %114 = getelementptr inbounds [100 x [100 x i32]], [100 x [100 x i32]]* %4, i64 0, i64 %113
  %115 = load i32, i32* %3, align 4
  %116 = load i32, i32* %8, align 4
  %117 = sub nsw i32 %115, %116
  %118 = sub nsw i32 %117, 1
  %119 = sext i32 %118 to i64
  %120 = getelementptr inbounds [100 x i32], [100 x i32]* %114, i64 0, i64 %119
  %121 = load i32, i32* %120, align 4
  %122 = call i32 (i8*, ...) @printf(i8* getelementptr inbounds ([3 x i8], [3 x i8]* @.str.1, i64 0, i64 0), i32 %121)
  br label %142

123:                                              ; preds = %103
  %124 = load i32, i32* %7, align 4
  %125 = load i32, i32* %2, align 4
  %126 = load i32, i32* %3, align 4
  %127 = mul nsw i32 %125, %126
  %128 = icmp slt i32 %124, %127
  br i1 %128, label %129, label %141

129:                                              ; preds = %123
  %130 = load i32, i32* %5, align 4
  %131 = sext i32 %130 to i64
  %132 = getelementptr inbounds [100 x [100 x i32]], [100 x [100 x i32]]* %4, i64 0, i64 %131
  %133 = load i32, i32* %3, align 4
  %134 = load i32, i32* %8, align 4
  %135 = sub nsw i32 %133, %134
  %136 = sub nsw i32 %135, 1
  %137 = sext i32 %136 to i64
  %138 = getelementptr inbounds [100 x i32], [100 x i32]* %132, i64 0, i64 %137
  %139 = load i32, i32* %138, align 4
  %140 = call i32 (i8*, ...) @printf(i8* getelementptr inbounds ([4 x i8], [4 x i8]* @.str.2, i64 0, i64 0), i32 %139)
  br label %141

141:                                              ; preds = %129, %123
  br label %142

142:                                              ; preds = %141, %111
  br label %143

143:                                              ; preds = %142
  %144 = load i32, i32* %5, align 4
  %145 = add nsw i32 %144, 1
  store i32 %145, i32* %5, align 4
  br label %97

146:                                              ; preds = %97
  %147 = load i32, i32* %3, align 4
  %148 = load i32, i32* %8, align 4
  %149 = sub nsw i32 %147, %148
  %150 = sub nsw i32 %149, 2
  store i32 %150, i32* %6, align 4
  br label %151

151:                                              ; preds = %196, %146
  %152 = load i32, i32* %6, align 4
  %153 = load i32, i32* %8, align 4
  %154 = sub nsw i32 %153, 1
  %155 = icmp sgt i32 %152, %154
  br i1 %155, label %156, label %199

156:                                              ; preds = %151
  %157 = load i32, i32* %7, align 4
  %158 = add nsw i32 %157, 1
  store i32 %158, i32* %7, align 4
  %159 = load i32, i32* %7, align 4
  %160 = load i32, i32* %2, align 4
  %161 = load i32, i32* %3, align 4
  %162 = mul nsw i32 %160, %161
  %163 = icmp eq i32 %159, %162
  br i1 %163, label %164, label %176

164:                                              ; preds = %156
  %165 = load i32, i32* %2, align 4
  %166 = load i32, i32* %8, align 4
  %167 = sub nsw i32 %165, %166
  %168 = sub nsw i32 %167, 1
  %169 = sext i32 %168 to i64
  %170 = getelementptr inbounds [100 x [100 x i32]], [100 x [100 x i32]]* %4, i64 0, i64 %169
  %171 = load i32, i32* %6, align 4
  %172 = sext i32 %171 to i64
  %173 = getelementptr inbounds [100 x i32], [100 x i32]* %170, i64 0, i64 %172
  %174 = load i32, i32* %173, align 4
  %175 = call i32 (i8*, ...) @printf(i8* getelementptr inbounds ([3 x i8], [3 x i8]* @.str.1, i64 0, i64 0), i32 %174)
  br label %195

176:                                              ; preds = %156
  %177 = load i32, i32* %7, align 4
  %178 = load i32, i32* %2, align 4
  %179 = load i32, i32* %3, align 4
  %180 = mul nsw i32 %178, %179
  %181 = icmp slt i32 %177, %180
  br i1 %181, label %182, label %194

182:                                              ; preds = %176
  %183 = load i32, i32* %2, align 4
  %184 = load i32, i32* %8, align 4
  %185 = sub nsw i32 %183, %184
  %186 = sub nsw i32 %185, 1
  %187 = sext i32 %186 to i64
  %188 = getelementptr inbounds [100 x [100 x i32]], [100 x [100 x i32]]* %4, i64 0, i64 %187
  %189 = load i32, i32* %6, align 4
  %190 = sext i32 %189 to i64
  %191 = getelementptr inbounds [100 x i32], [100 x i32]* %188, i64 0, i64 %190
  %192 = load i32, i32* %191, align 4
  %193 = call i32 (i8*, ...) @printf(i8* getelementptr inbounds ([4 x i8], [4 x i8]* @.str.2, i64 0, i64 0), i32 %192)
  br label %194

194:                                              ; preds = %182, %176
  br label %195

195:                                              ; preds = %194, %164
  br label %196

196:                                              ; preds = %195
  %197 = load i32, i32* %6, align 4
  %198 = add nsw i32 %197, -1
  store i32 %198, i32* %6, align 4
  br label %151

199:                                              ; preds = %151
  %200 = load i32, i32* %2, align 4
  %201 = load i32, i32* %8, align 4
  %202 = sub nsw i32 %200, %201
  %203 = sub nsw i32 %202, 2
  store i32 %203, i32* %5, align 4
  br label %204

204:                                              ; preds = %242, %199
  %205 = load i32, i32* %5, align 4
  %206 = load i32, i32* %8, align 4
  %207 = icmp sgt i32 %205, %206
  br i1 %207, label %208, label %245

208:                                              ; preds = %204
  %209 = load i32, i32* %7, align 4
  %210 = add nsw i32 %209, 1
  store i32 %210, i32* %7, align 4
  %211 = load i32, i32* %7, align 4
  %212 = load i32, i32* %2, align 4
  %213 = load i32, i32* %3, align 4
  %214 = mul nsw i32 %212, %213
  %215 = icmp eq i32 %211, %214
  br i1 %215, label %216, label %225

216:                                              ; preds = %208
  %217 = load i32, i32* %5, align 4
  %218 = sext i32 %217 to i64
  %219 = getelementptr inbounds [100 x [100 x i32]], [100 x [100 x i32]]* %4, i64 0, i64 %218
  %220 = load i32, i32* %8, align 4
  %221 = sext i32 %220 to i64
  %222 = getelementptr inbounds [100 x i32], [100 x i32]* %219, i64 0, i64 %221
  %223 = load i32, i32* %222, align 4
  %224 = call i32 (i8*, ...) @printf(i8* getelementptr inbounds ([3 x i8], [3 x i8]* @.str.1, i64 0, i64 0), i32 %223)
  br label %241

225:                                              ; preds = %208
  %226 = load i32, i32* %7, align 4
  %227 = load i32, i32* %2, align 4
  %228 = load i32, i32* %3, align 4
  %229 = mul nsw i32 %227, %228
  %230 = icmp slt i32 %226, %229
  br i1 %230, label %231, label %240

231:                                              ; preds = %225
  %232 = load i32, i32* %5, align 4
  %233 = sext i32 %232 to i64
  %234 = getelementptr inbounds [100 x [100 x i32]], [100 x [100 x i32]]* %4, i64 0, i64 %233
  %235 = load i32, i32* %8, align 4
  %236 = sext i32 %235 to i64
  %237 = getelementptr inbounds [100 x i32], [100 x i32]* %234, i64 0, i64 %236
  %238 = load i32, i32* %237, align 4
  %239 = call i32 (i8*, ...) @printf(i8* getelementptr inbounds ([4 x i8], [4 x i8]* @.str.2, i64 0, i64 0), i32 %238)
  br label %240

240:                                              ; preds = %231, %225
  br label %241

241:                                              ; preds = %240, %216
  br label %242

242:                                              ; preds = %241
  %243 = load i32, i32* %5, align 4
  %244 = add nsw i32 %243, -1
  store i32 %244, i32* %5, align 4
  br label %204

245:                                              ; preds = %204
  br label %246

246:                                              ; preds = %245
  %247 = load i32, i32* %8, align 4
  %248 = add nsw i32 %247, 1
  store i32 %248, i32* %8, align 4
  br label %35

249:                                              ; preds = %47
  ret i32 0
}